target datalayout = "e-m:e-p270:32:32-p271:32:32-p272:64:64-i64:64-i128:128-f80:128-n8:16:32:64-S128"
target triple = "x86_64-pc-linux-gnu"

%struct.H5T_t = type { %struct.H5O_shared_t, ptr, %struct.H5O_loc_t, %struct.H5G_name_t, ptr }
%struct.H5O_shared_t = type { i32, ptr, i32, %union.anon }
%union.anon = type { %struct.H5O_mesg_loc_t }
%struct.H5O_mesg_loc_t = type { i32, i64 }
%struct.H5O_loc_t = type { ptr, i64, i8 }
%struct.H5G_name_t = type { ptr, ptr, i32 }
%struct.H5T_shared_t = type { i64, i32, i32, i64, i32, i8, ptr, ptr, %union.anon.0 }
%union.anon.0 = type { %struct.H5T_array_t }
%struct.H5T_array_t = type { i64, i32, [32 x i64] }
%struct.H5T_compnd_t = type { i32, i32, i32, i8, ptr, i64 }
%struct.H5T_cmemb_t = type { ptr, i64, i64, ptr }
%struct.H5T_vlen_t = type { i32, i32, i32, i32, ptr, ptr }

@H5_libinit_g = external global i8, align 1
@H5_libterm_g = external global i8, align 1
@.str = private unnamed_addr constant [105 x i8] c"generated/home/dtcxzyw/WorkSpace/Projects/compilers/llvm-opt-benchmark/bench/hdf5/hdf5/src/H5Tcompound.c\00", align 1
@H5E_FUNC_g = external global i64, align 8
@H5E_CANTINIT_g = external global i64, align 8
@.str.1 = private unnamed_addr constant [30 x i8] c"library initialization failed\00", align 1
@H5E_CANTSET_g = external global i64, align 8
@.str.2 = private unnamed_addr constant [22 x i8] c"can't set API context\00", align 1
@H5E_ARGS_g = external global i64, align 8
@H5E_BADTYPE_g = external global i64, align 8
@.str.3 = private unnamed_addr constant [24 x i8] c"not a compound datatype\00", align 1
@H5E_BADVALUE_g = external global i64, align 8
@.str.4 = private unnamed_addr constant [22 x i8] c"invalid member number\00", align 1
@__func__.H5Tget_member_class = private unnamed_addr constant [20 x i8] c"H5Tget_member_class\00", align 1

; Function Attrs: nounwind uwtable
define i32 @H5Tget_member_class(i64 noundef %0, i32 noundef %1) #0 {
  %3 = alloca i64, align 8
  %4 = alloca i32, align 4
  %5 = alloca ptr, align 8
  %6 = alloca i32, align 4
  %7 = alloca i8, align 1
  %8 = alloca i8, align 1
  store i64 %0, ptr %3, align 8
  store i32 %1, ptr %4, align 4
  store i8 0, ptr %7, align 1
  store i8 0, ptr %8, align 1
  %9 = load i8, ptr @H5_libinit_g, align 1
  %10 = trunc i8 %9 to i1
  br i1 %10, label %15, label %11

11:                                               ; preds = %2
  %12 = load i8, ptr @H5_libterm_g, align 1
  %13 = trunc i8 %12 to i1
  %14 = xor i1 %13, true
  br label %15

15:                                               ; preds = %11, %2
  %16 = phi i1 [ false, %2 ], [ %14, %11 ]
  %17 = xor i1 %16, true
  %18 = xor i1 %17, true
  %19 = zext i1 %18 to i32
  %20 = sext i32 %19 to i64
  %21 = icmp ne i64 %20, 0
  br i1 %21, label %22, label %46

22:                                               ; preds = %15
  %23 = call i32 @H5_init_library()
  %24 = icmp slt i32 %23, 0
  %25 = xor i1 %24, true
  %26 = xor i1 %25, true
  %27 = zext i1 %26 to i32
  %28 = sext i32 %27 to i64
  %29 = icmp ne i64 %28, 0
  br i1 %29, label %30, label %45

30:                                               ; preds = %22
  br label %31

31:                                               ; preds = %30
  br label %32

32:                                               ; preds = %31
  br label %33

33:                                               ; preds = %32
  %34 = load i64, ptr @H5E_FUNC_g, align 8
  %35 = load i64, ptr @H5E_CANTINIT_g, align 8
  %36 = call i32 (ptr, ptr, i32, i64, i64, ptr, ...) @H5E_printf_stack(ptr noundef @.str, ptr noundef @__func__.H5Tget_member_class, i32 noundef 148, i64 noundef %34, i64 noundef %35, ptr noundef @.str.1)
  br label %37

37:                                               ; preds = %33
  store i8 1, ptr %8, align 1
  %38 = load i8, ptr %8, align 1
  %39 = trunc i8 %38 to i1
  %40 = zext i1 %39 to i8
  store i8 %40, ptr %8, align 1
  br label %41

41:                                               ; preds = %37
  br label %42

42:                                               ; preds = %41
  store i32 -1, ptr %6, align 4
  br label %175

43:                                               ; No predecessors!
  br label %44

44:                                               ; preds = %43
  br label %45

45:                                               ; preds = %44, %22
  br label %46

46:                                               ; preds = %45, %15
  %47 = call i32 @H5CX_push()
  %48 = icmp slt i32 %47, 0
  %49 = xor i1 %48, true
  %50 = xor i1 %49, true
  %51 = zext i1 %50 to i32
  %52 = sext i32 %51 to i64
  %53 = icmp ne i64 %52, 0
  br i1 %53, label %54, label %69

54:                                               ; preds = %46
  br label %55

55:                                               ; preds = %54
  br label %56

56:                                               ; preds = %55
  br label %57

57:                                               ; preds = %56
  %58 = load i64, ptr @H5E_FUNC_g, align 8
  %59 = load i64, ptr @H5E_CANTSET_g, align 8
  %60 = call i32 (ptr, ptr, i32, i64, i64, ptr, ...) @H5E_printf_stack(ptr noundef @.str, ptr noundef @__func__.H5Tget_member_class, i32 noundef 148, i64 noundef %58, i64 noundef %59, ptr noundef @.str.2)
  br label %61

61:                                               ; preds = %57
  store i8 1, ptr %8, align 1
  %62 = load i8, ptr %8, align 1
  %63 = trunc i8 %62 to i1
  %64 = zext i1 %63 to i8
  store i8 %64, ptr %8, align 1
  br label %65

65:                                               ; preds = %61
  br label %66

66:                                               ; preds = %65
  store i32 -1, ptr %6, align 4
  br label %175

67:                                               ; No predecessors!
  br label %68

68:                                               ; preds = %67
  br label %70

69:                                               ; preds = %46
  store i8 1, ptr %7, align 1
  br label %70

70:                                               ; preds = %69, %68
  %71 = call i32 @H5E_clear_stack()
  %72 = load i64, ptr %3, align 8
  %73 = call ptr @H5I_object_verify(i64 noundef %72, i32 noundef 3)
  store ptr %73, ptr %5, align 8
  %74 = icmp eq ptr null, %73
  br i1 %74, label %82, label %75

75:                                               ; preds = %70
  %76 = load ptr, ptr %5, align 8
  %77 = getelementptr inbounds %struct.H5T_t, ptr %76, i32 0, i32 1
  %78 = load ptr, ptr %77, align 8
  %79 = getelementptr inbounds %struct.H5T_shared_t, ptr %78, i32 0, i32 2
  %80 = load i32, ptr %79, align 4
  %81 = icmp ne i32 6, %80
  br i1 %81, label %82, label %97

82:                                               ; preds = %75, %70
  br label %83

83:                                               ; preds = %82
  br label %84

84:                                               ; preds = %83
  br label %85

85:                                               ; preds = %84
  %86 = load i64, ptr @H5E_ARGS_g, align 8
  %87 = load i64, ptr @H5E_BADTYPE_g, align 8
  %88 = call i32 (ptr, ptr, i32, i64, i64, ptr, ...) @H5E_printf_stack(ptr noundef @.str, ptr noundef @__func__.H5Tget_member_class, i32 noundef 152, i64 noundef %86, i64 noundef %87, ptr noundef @.str.3)
  br label %89

89:                                               ; preds = %85
  store i8 1, ptr %8, align 1
  %90 = load i8, ptr %8, align 1
  %91 = trunc i8 %90 to i1
  %92 = zext i1 %91 to i8
  store i8 %92, ptr %8, align 1
  br label %93

93:                                               ; preds = %89
  br label %94

94:                                               ; preds = %93
  store i32 -1, ptr %6, align 4
  br label %175

95:                                               ; No predecessors!
  br label %96

96:                                               ; preds = %95
  br label %97

97:                                               ; preds = %96, %75
  %98 = load i32, ptr %4, align 4
  %99 = load ptr, ptr %5, align 8
  %100 = getelementptr inbounds %struct.H5T_t, ptr %99, i32 0, i32 1
  %101 = load ptr, ptr %100, align 8
  %102 = getelementptr inbounds %struct.H5T_shared_t, ptr %101, i32 0, i32 8
  %103 = getelementptr inbounds %struct.H5T_compnd_t, ptr %102, i32 0, i32 1
  %104 = load i32, ptr %103, align 4
  %105 = icmp uge i32 %98, %104
  br i1 %105, label %106, label %121

106:                                              ; preds = %97
  br label %107

107:                                              ; preds = %106
  br label %108

108:                                              ; preds = %107
  br label %109

109:                                              ; preds = %108
  %110 = load i64, ptr @H5E_ARGS_g, align 8
  %111 = load i64, ptr @H5E_BADVALUE_g, align 8
  %112 = call i32 (ptr, ptr, i32, i64, i64, ptr, ...) @H5E_printf_stack(ptr noundef @.str, ptr noundef @__func__.H5Tget_member_class, i32 noundef 154, i64 noundef %110, i64 noundef %111, ptr noundef @.str.4)
  br label %113

113:                                              ; preds = %109
  store i8 1, ptr %8, align 1
  %114 = load i8, ptr %8, align 1
  %115 = trunc i8 %114 to i1
  %116 = zext i1 %115 to i8
  store i8 %116, ptr %8, align 1
  br label %117

117:                                              ; preds = %113
  br label %118

118:                                              ; preds = %117
  store i32 -1, ptr %6, align 4
  br label %175

119:                                              ; No predecessors!
  br label %120

120:                                              ; preds = %119
  br label %121

121:                                              ; preds = %120, %97
  %122 = load ptr, ptr %5, align 8
  %123 = getelementptr inbounds %struct.H5T_t, ptr %122, i32 0, i32 1
  %124 = load ptr, ptr %123, align 8
  %125 = getelementptr inbounds %struct.H5T_shared_t, ptr %124, i32 0, i32 8
  %126 = getelementptr inbounds %struct.H5T_compnd_t, ptr %125, i32 0, i32 4
  %127 = load ptr, ptr %126, align 8
  %128 = load i32, ptr %4, align 4
  %129 = zext i32 %128 to i64
  %130 = getelementptr inbounds %struct.H5T_cmemb_t, ptr %127, i64 %129
  %131 = getelementptr inbounds %struct.H5T_cmemb_t, ptr %130, i32 0, i32 3
  %132 = load ptr, ptr %131, align 8
  %133 = getelementptr inbounds %struct.H5T_t, ptr %132, i32 0, i32 1
  %134 = load ptr, ptr %133, align 8
  %135 = getelementptr inbounds %struct.H5T_shared_t, ptr %134, i32 0, i32 2
  %136 = load i32, ptr %135, align 4
  %137 = icmp eq i32 9, %136
  br i1 %137, label %138, label %157

138:                                              ; preds = %121
  %139 = load ptr, ptr %5, align 8
  %140 = getelementptr inbounds %struct.H5T_t, ptr %139, i32 0, i32 1
  %141 = load ptr, ptr %140, align 8
  %142 = getelementptr inbounds %struct.H5T_shared_t, ptr %141, i32 0, i32 8
  %143 = getelementptr inbounds %struct.H5T_compnd_t, ptr %142, i32 0, i32 4
  %144 = load ptr, ptr %143, align 8
  %145 = load i32, ptr %4, align 4
  %146 = zext i32 %145 to i64
  %147 = getelementptr inbounds %struct.H5T_cmemb_t, ptr %144, i64 %146
  %148 = getelementptr inbounds %struct.H5T_cmemb_t, ptr %147, i32 0, i32 3
  %149 = load ptr, ptr %148, align 8
  %150 = getelementptr inbounds %struct.H5T_t, ptr %149, i32 0, i32 1
  %151 = load ptr, ptr %150, align 8
  %152 = getelementptr inbounds %struct.H5T_shared_t, ptr %151, i32 0, i32 8
  %153 = getelementptr inbounds %struct.H5T_vlen_t, ptr %152, i32 0, i32 0
  %154 = load i32, ptr %153, align 8
  %155 = icmp eq i32 1, %154
  br i1 %155, label %156, label %157

156:                                              ; preds = %138
  br label %173

157:                                              ; preds = %138, %121
  %158 = load ptr, ptr %5, align 8
  %159 = getelementptr inbounds %struct.H5T_t, ptr %158, i32 0, i32 1
  %160 = load ptr, ptr %159, align 8
  %161 = getelementptr inbounds %struct.H5T_shared_t, ptr %160, i32 0, i32 8
  %162 = getelementptr inbounds %struct.H5T_compnd_t, ptr %161, i32 0, i32 4
  %163 = load ptr, ptr %162, align 8
  %164 = load i32, ptr %4, align 4
  %165 = zext i32 %164 to i64
  %166 = getelementptr inbounds %struct.H5T_cmemb_t, ptr %163, i64 %165
  %167 = getelementptr inbounds %struct.H5T_cmemb_t, ptr %166, i32 0, i32 3
  %168 = load ptr, ptr %167, align 8
  %169 = getelementptr inbounds %struct.H5T_t, ptr %168, i32 0, i32 1
  %170 = load ptr, ptr %169, align 8
  %171 = getelementptr inbounds %struct.H5T_shared_t, ptr %170, i32 0, i32 2
  %172 = load i32, ptr %171, align 4
  br label %173

173:                                              ; preds = %157, %156
  %174 = phi i32 [ 3, %156 ], [ %172, %157 ]
  store i32 %174, ptr %6, align 4
  br label %175

175:                                              ; preds = %173, %118, %94, %66, %42
  %176 = load i8, ptr %7, align 1
  %177 = trunc i8 %176 to i1
  %178 = xor i1 %177, true
  %179 = xor i1 %178, true
  %180 = zext i1 %179 to i32
  %181 = sext i32 %180 to i64
  %182 = icmp ne i64 %181, 0
  br i1 %182, label %183, label %185

183:                                              ; preds = %175
  %184 = call i32 @H5CX_pop(i1 noundef zeroext true)
  store i8 0, ptr %7, align 1
  br label %185

185:                                              ; preds = %183, %175
  %186 = load i8, ptr %8, align 1
  %187 = trunc i8 %186 to i1
  %188 = xor i1 %187, true
  %189 = xor i1 %188, true
  %190 = zext i1 %189 to i32
  %191 = sext i32 %190 to i64
  %192 = icmp ne i64 %191, 0
  br i1 %192, label %193, label %195

193:                                              ; preds = %185
  %194 = call i32 @H5E_dump_api_stack()
  br label %195

195:                                              ; preds = %193, %185
  %196 = load i32, ptr %6, align 4
  ret i32 %196
}